Certificate:
    Data:
        Version: 3 (0x2)
        Serial Number: 4096 (0x1000)
        Signature Algorithm: sha256WithRSAEncryption
        Issuer: C=US, ST=New Hampshihre, L=Manchester, O=Southern New Hampshire University, OU=SETA, CN=CS590-ROOT
        Validity
            Not Before: Apr  9 18:24:40 2026 GMT
            Not After : Apr  8 18:24:40 2028 GMT
        Subject: C=US, ST=New Hampshihre, O=Southern New Hampshire University, OU=SETA, CN=CS590-INTERMEDIATE
        Subject Public Key Info:
            Public Key Algorithm: rsaEncryption
                Public-Key: (4096 bit)
                Modulus:
                    00:9f:2a:2d:36:df:de:b0:f9:f3:17:ea:4d:65:b4:
                    71:92:29:58:a0:c2:49:9c:ab:54:9c:1f:ae:cf:ab:
                    85:da:cc:b7:e9:a0:08:4b:08:ab:9c:40:67:c2:a9:
                    a8:07:32:26:7d:03:3b:b7:f2:fa:f6:c6:43:c0:93:
                    6b:bc:3b:3a:fd:a7:ff:0e:58:60:93:64:c0:37:e8:
                    af:e0:6f:de:34:31:53:56:dc:79:5f:6b:2e:d3:a8:
                    3b:27:9b:4b:71:14:ff:f0:96:09:15:8f:27:32:a9:
                    5b:30:21:a5:bd:d1:84:06:71:81:5a:59:ee:ee:0e:
                    83:96:85:78:d4:90:94:30:7b:88:28:9c:10:d7:82:
                    1c:39:5d:36:b8:a9:66:a7:9d:28:df:b0:dc:94:dd:
                    a5:27:37:28:e0:b9:c5:61:86:2e:49:b6:76:ae:63:
                    6c:a1:a4:fd:f7:5d:b5:44:01:25:e1:ff:19:11:2f:
                    8d:d3:4a:6e:f9:74:12:07:32:26:63:fe:05:c1:00:
                    b2:c7:ea:15:97:b7:7e:76:fc:dd:c5:dc:49:f0:56:
                    39:56:a6:10:03:6f:ca:04:38:05:e9:5d:62:d6:46:
                    08:dc:7d:4c:96:12:68:51:6e:26:0e:7f:1f:04:96:
                    9e:9d:17:b6:7a:a3:ce:41:2b:61:e2:54:48:57:1c:
                    75:e4:ce:6c:52:da:0b:cd:9e:96:06:3f:96:7c:c7:
                    da:c4:99:8d:07:25:c0:06:d1:9c:eb:e0:63:98:98:
                    cf:ad:e0:06:67:d2:25:2d:47:ef:3a:57:2c:31:78:
                    68:bf:f4:7f:03:e4:58:c3:8e:62:a7:df:08:c8:ac:
                    c4:5c:2d:3a:49:88:07:c4:2f:cf:5f:de:84:38:41:
                    ba:51:6d:4c:0a:97:5c:22:43:b8:60:78:c4:5d:f8:
                    17:46:4b:46:43:6d:b9:f5:22:75:88:20:94:86:f6:
                    64:9b:4b:1e:4d:2f:61:7f:fd:5d:2d:90:9e:3d:33:
                    5c:1a:91:cb:7b:4d:a0:ab:93:5e:53:8c:7b:70:ad:
                    d9:d3:9f:da:d3:ff:fc:6e:26:7d:9c:e9:f3:bd:c6:
                    a7:43:ca:0c:47:cd:7a:ca:22:bb:98:85:ae:53:91:
                    54:96:4c:aa:17:f3:7b:37:1a:34:16:e4:2d:d8:e5:
                    de:b4:0c:ff:bc:ff:22:3d:19:c7:ad:31:9d:4e:09:
                    67:bc:63:aa:6c:94:d4:18:7d:f2:26:fc:74:a0:d9:
                    ed:66:16:65:a4:1a:c8:64:52:6b:20:54:62:34:c6:
                    f9:ba:ae:3e:32:ba:9b:a1:5d:31:11:8b:c6:92:e1:
                    13:2f:17:48:78:6f:b5:cd:ff:e9:0a:39:c2:7f:f9:
                    4f:a2:ed
                Exponent: 65537 (0x10001)
        X509v3 extensions:
            X509v3 Subject Key Identifier: 
                7E:B4:48:CD:0E:8E:46:A9:EF:28:4F:E4:1D:37:20:91:24:82:9E:FD
            X509v3 Authority Key Identifier: 
                B3:DF:F1:AB:F1:9C:3E:15:0E:52:38:C9:BA:C8:08:0D:D7:B1:4A:E5
            X509v3 Basic Constraints: critical
                CA:TRUE, pathlen:0
            X509v3 Key Usage: critical
                Digital Signature, Certificate Sign, CRL Sign
    Signature Algorithm: sha256WithRSAEncryption
    Signature Value:
        73:96:69:9d:0f:b7:7d:02:1f:f7:0f:b2:62:b0:6d:29:a3:0a:
        e4:26:20:42:bc:ac:13:c3:fb:79:bf:6b:03:72:56:e2:0e:d0:
        55:10:48:3c:02:4d:08:95:03:3d:a7:ed:08:3e:46:fa:2d:f2:
        66:26:c6:6c:d4:94:d4:26:28:d9:0a:8f:4d:33:c7:9f:a1:b3:
        a8:05:87:4b:71:fd:fb:82:7d:b4:5d:c0:5a:45:fc:f4:85:57:
        4a:d9:6a:52:67:f3:b1:54:49:08:89:77:20:a5:45:75:c1:af:
        eb:e1:0b:78:09:4e:8b:4f:7f:8e:72:52:c4:95:f7:49:2b:d4:
        04:07:f0:94:f1:56:a4:f8:48:c2:9c:57:a2:9d:af:ec:70:1b:
        4d:70:53:91:86:1f:c8:1e:24:e0:01:a3:e4:b7:6c:c6:0f:02:
        93:58:82:9d:4f:14:3a:be:44:71:98:11:bf:b6:10:c2:69:c7:
        09:f2:15:bf:b7:eb:96:8e:72:c1:f4:54:c1:4f:b5:27:a4:14:
        c8:33:b2:2e:61:a7:fc:9c:b4:9f:54:3e:cd:bd:a7:56:79:cf:
        96:0e:7e:da:e1:0f:a3:7f:ed:9b:2e:5a:9e:34:31:b3:3d:64:
        c7:3d:0f:df:10:69:3c:56:b4:06:75:42:a9:ab:51:6e:5e:a8:
        96:2e:e8:ef:a9:67:90:b4:a2:19:70:51:f4:e7:b7:6f:88:c3:
        90:65:89:5b:a0:66:9e:e7:ab:79:65:26:c7:70:26:67:06:3e:
        28:1d:aa:2c:4f:cf:73:d2:48:54:94:35:c8:3e:f5:05:e8:1d:
        48:5c:6a:76:98:c8:b8:b7:0c:82:e9:b5:19:77:27:d2:f0:11:
        2d:af:b2:d7:fd:d9:a0:5a:ac:19:20:6a:04:92:78:5c:46:a3:
        7c:66:86:c2:9c:93:24:dd:5e:3e:bd:6c:c2:c5:00:01:da:d3:
        cd:db:69:32:e7:20:1d:17:06:69:a7:a6:d8:1f:a0:c7:da:29:
        25:1c:46:49:83:1c:2d:78:8c:c7:5a:fe:9e:4c:bd:bb:70:44:
        f2:7c:a0:e7:02:f2:1d:91:ad:50:07:48:0b:18:31:73:fc:fa:
        72:b5:a9:33:32:6b:62:f7:fe:b4:40:50:d3:80:20:d7:dd:57:
        0d:bc:d5:16:d9:b6:86:87:0c:b8:91:e5:5e:ef:cd:19:8b:d3:
        9b:51:0f:75:25:a6:33:ae:81:1f:e5:77:7b:12:c9:66:7b:07:
        71:25:5d:ae:c6:a1:54:32:7f:87:76:4d:83:fa:97:3c:b2:99:
        e8:7a:b9:a8:5e:5e:3e:45:7e:69:52:6f:8c:d5:59:15:ee:dc:
        76:ac:bd:de:33:bb:9f:29
-----BEGIN CERTIFICATE-----
MIIF7DCCA9SgAwIBAgICEAAwDQYJKoZIhvcNAQELBQAwgYsxCzAJBgNVBAYTAlVT
MRcwFQYDVQQIDA5OZXcgSGFtcHNoaWhyZTETMBEGA1UEBwwKTWFuY2hlc3RlcjEq
MCgGA1UECgwhU291dGhlcm4gTmV3IEhhbXBzaGlyZSBVbml2ZXJzaXR5MQ0wCwYD
VQQLDARTRVRBMRMwEQYDVQQDDApDUzU5MC1ST09UMB4XDTI2MDQwOTE4MjQ0MFoX
DTI4MDQwODE4MjQ0MFowfjELMAkGA1UEBhMCVVMxFzAVBgNVBAgMDk5ldyBIYW1w
c2hpaHJlMSowKAYDVQQKDCFTb3V0aGVybiBOZXcgSGFtcHNoaXJlIFVuaXZlcnNp
dHkxDTALBgNVBAsMBFNFVEExGzAZBgNVBAMMEkNTNTkwLUlOVEVSTUVESUFURTCC
AiIwDQYJKoZIhvcNAQEBBQADggIPADCCAgoCggIBAJ8qLTbf3rD58xfqTWW0cZIp
WKDCSZyrVJwfrs+rhdrMt+mgCEsIq5xAZ8KpqAcyJn0DO7fy+vbGQ8CTa7w7Ov2n
/w5YYJNkwDfor+Bv3jQxU1bceV9rLtOoOyebS3EU//CWCRWPJzKpWzAhpb3RhAZx
gVpZ7u4Og5aFeNSQlDB7iCicENeCHDldNripZqedKN+w3JTdpSc3KOC5xWGGLkm2
dq5jbKGk/fddtUQBJeH/GREvjdNKbvl0EgcyJmP+BcEAssfqFZe3fnb83cXcSfBW
OVamEANvygQ4BeldYtZGCNx9TJYSaFFuJg5/HwSWnp0XtnqjzkErYeJUSFccdeTO
bFLaC82elgY/lnzH2sSZjQclwAbRnOvgY5iYz63gBmfSJS1H7zpXLDF4aL/0fwPk
WMOOYqffCMisxFwtOkmIB8Qvz1/ehDhBulFtTAqXXCJDuGB4xF34F0ZLRkNtufUi
dYgglIb2ZJtLHk0vYX/9XS2Qnj0zXBqRy3tNoKuTXlOMe3Ct2dOf2tP//G4mfZzp
873Gp0PKDEfNesoiu5iFrlORVJZMqhfzezcaNBbkLdjl3rQM/7z/Ij0Zx60xnU4J
Z7xjqmyU1Bh98ib8dKDZ7WYWZaQayGRSayBUYjTG+bquPjK6m6FdMRGLxpLhEy8X
SHhvtc3/6Qo5wn/5T6LtAgMBAAGjZjBkMB0GA1UdDgQWBBR+tEjNDo5Gqe8oT+Qd
NyCRJIKe/TAfBgNVHSMEGDAWgBSz3/Gr8Zw+FQ5SOMm6yAgN17FK5TASBgNVHRMB
Af8ECDAGAQH/AgEAMA4GA1UdDwEB/wQEAwIBhjANBgkqhkiG9w0BAQsFAAOCAgEA
c5ZpnQ+3fQIf9w+yYrBtKaMK5CYgQrysE8P7eb9rA3JW4g7QVRBIPAJNCJUDPaft
CD5G+i3yZibGbNSU1CYo2QqPTTPHn6GzqAWHS3H9+4J9tF3AWkX89IVXStlqUmfz
sVRJCIl3IKVFdcGv6+ELeAlOi09/jnJSxJX3SSvUBAfwlPFWpPhIwpxXop2v7HAb
TXBTkYYfyB4k4AGj5Ldsxg8Ck1iCnU8UOr5EcZgRv7YQwmnHCfIVv7frlo5ywfRU
wU+1J6QUyDOyLmGn/Jy0n1Q+zb2nVnnPlg5+2uEPo3/tmy5anjQxsz1kxz0P3xBp
PFa0BnVCqatRbl6oli7o76lnkLSiGXBR9Oe3b4jDkGWJW6BmnuereWUmx3AmZwY+
KB2qLE/Pc9JIVJQ1yD71BegdSFxqdpjIuLcMgum1GXcn0vARLa+y1/3ZoFqsGSBq
BJJ4XEajfGaGwpyTJN1ePr1swsUAAdrTzdtpMucgHRcGaaem2B+gx9opJRxGSYMc
LXiMx1r+nky9u3BE8nyg5wLyHZGtUAdICxgxc/z6crWpMzJrYvf+tEBQ04Ag191X
DbzVFtm2hocMuJHlXu/NGYvTm1EPdSWmM66BH+V3exLJZnsHcSVdrsahVDJ/h3ZN
g/qXPLKZ6Hq5qF5ePkV+aVJvjNVZFe7cdqy93jO7nyk=
-----END CERTIFICATE-----
-----BEGIN CERTIFICATE-----
MIIGCTCCA/GgAwIBAgIUeGROe+9S6LuQq9QS/UuAUaa4uxYwDQYJKoZIhvcNAQEL
BQAwgYsxCzAJBgNVBAYTAlVTMRcwFQYDVQQIDA5OZXcgSGFtcHNoaWhyZTETMBEG
A1UEBwwKTWFuY2hlc3RlcjEqMCgGA1UECgwhU291dGhlcm4gTmV3IEhhbXBzaGly
ZSBVbml2ZXJzaXR5MQ0wCwYDVQQLDARTRVRBMRMwEQYDVQQDDApDUzU5MC1ST09U
MB4XDTI2MDQwOTE4MTQyN1oXDTM2MDQwNjE4MTQyN1owgYsxCzAJBgNVBAYTAlVT
MRcwFQYDVQQIDA5OZXcgSGFtcHNoaWhyZTETMBEGA1UEBwwKTWFuY2hlc3RlcjEq
MCgGA1UECgwhU291dGhlcm4gTmV3IEhhbXBzaGlyZSBVbml2ZXJzaXR5MQ0wCwYD
VQQLDARTRVRBMRMwEQYDVQQDDApDUzU5MC1ST09UMIICIjANBgkqhkiG9w0BAQEF
AAOCAg8AMIICCgKCAgEAlDfl0wFRZbAqbLAojgHqKoJBRJfMKCoT3gW00BtaYQzA
Vf+LtYqW9p122voxwbAyVZ9tg8/j97gceb/EzvVrKvRJioDXb1T9jxgOnC30ypaI
fQNX92GUufcPgEdYMW6U8w4RRm2EXGssgPza9XXc7eTaIhTmxezC7WXpomWkuKPS
qrPLZ5/W9KAsPiMZkvJqJnHqioocR1BJTvY+mbdYAF2Zp3Jm80mGezxMK3LH5/DG
wCIpWYzjAtR/Y2Mi3rp0wa+7u3IVs1wJ3Uyh1IsJNYHRDsKPwD6ILaRhSfwhOo3z
gbt9AT2M1fuTdjXgXH/l6WWBdDrxLGpSPFKZTg3MipcIDnQJ7APIBzTpGMvMw6pd
ipp1T9oRLBfLSlWze8qH7Z4MP0zWwvFf1CZc+/TbEmT5zoB51CGqfjHcZZ/XzAKb
x6fb+nExDP0CIhlkb7yRSp6gmO2M/oi9BtYZ6g4x2k65lvlYPnGf4rPHhDRcqXf2
ItWZbvlPwp8cDN3TjrHg4rFtRc13qLngDSw/QeWK/kSNlpcdNP0690RBclwWC8OH
Xp50u86LUazIOO64dR37BHR0NsCAPxeZcQEw4fLULbBK4r03MpHJdQrS/SJ3HBcZ
ovgO4mpNy+XrTcTIJOmADR7s+txiLUHr5GBov61lajsq9HHyrm0xKPrXkCbNec8C
AwEAAaNjMGEwHQYDVR0OBBYEFLPf8avxnD4VDlI4ybrICA3XsUrlMB8GA1UdIwQY
MBaAFLPf8avxnD4VDlI4ybrICA3XsUrlMA8GA1UdEwEB/wQFMAMBAf8wDgYDVR0P
AQH/BAQDAgGGMA0GCSqGSIb3DQEBCwUAA4ICAQBF+1BT1XczOVLaXJV7fTUZb5nG
eu5oIaOj+jKVwdNv1aUMvvqFQDPJo/PoDro4IFUerXYHbaJl0DAdqQF18cJ3vXdN
drTfGxkoo4zT8P4AAovEpvf/0TVZ72tFkjsjBLKdp2Sbh+QtKxpyaUnINSty3sli
KolNjYt6Bwzlsxx19LB2x/YiQBzdpCLLuBiNBARU7cdbfX6WYuJF3MxEtqAVbr1e
UrH6sDMsFhGM1gqKz5tO8wCV+0boa5XwjhGhhMR8KO79BoG/YmDF09D2o8dhnotv
sAhNDi8NGhxl/YuWWo0NRDdE0mpqJ2lE4ZLl5MMusEz07ljvW8pL2P8UiTsrsOVu
Pbs8k3G2Hnf+P/Wh3QF+H0fhtgRNgnYkc/03sQSNXbHS+jADpVCfkpsVhrjDQ50V
T8Pj/c9xzYjJaIBvo9Ks5RQXqeQWOGPHzwCiwRtYN9oPHD7I+IL4L1LHFnyLPsmI
fnlENgfIGl5gz8y2NBLR1mPwtlr2UR9qRf8nYdTkK2BXtn8s6kHc5X7/7XrptLOx
9VLl1Ymqf5fPNDk/NCqImlxN+9PYH2/1MvH8qSrp7OmiwwghkQW9rXvXYtXaZpi6
AJkpluqA7jaZWOpQNBVSSwq5T6jZIRdU9VSmsAYpDmtQpZs+LQ4HzrRrRe0WvFno
cnAJ+c3/5gzBPLjy2g==
-----END CERTIFICATE-----
